target datalayout = "e-m:e-p270:32:32-p271:32:32-p272:64:64-i64:64-i128:128-f80:128-n8:16:32:64-S128"
target triple = "x86_64-pc-linux-gnu"

; Function Attrs: nounwind sspstrong uwtable
define hidden i32 @FLAC__bitreader_read_raw_uint64(ptr noundef %0, ptr noundef %1, i32 noundef %2) #0 {
  %4 = alloca i32, align 4
  %5 = alloca ptr, align 8
  %6 = alloca ptr, align 8
  %7 = alloca i32, align 4
  %8 = alloca i32, align 4
  %9 = alloca i32, align 4
  %10 = alloca i32, align 4
  store ptr %0, ptr %5, align 8, !tbaa !3
  store ptr %1, ptr %6, align 8, !tbaa !39
  store i32 %2, ptr %7, align 4, !tbaa !32
  call void @llvm.lifetime.start.p0(i64 4, ptr %8) #10
  call void @llvm.lifetime.start.p0(i64 4, ptr %9) #10
  %11 = load i32, ptr %7, align 4, !tbaa !32
  %12 = icmp ugt i32 %11, 32
  br i1 %12, label %13, label %37

13:                                               ; preds = %3
  %14 = load ptr, ptr %5, align 8, !tbaa !3
  %15 = load i32, ptr %7, align 4, !tbaa !32
  %16 = sub i32 %15, 32
  %17 = call i32 @FLAC__bitreader_read_raw_uint32(ptr noundef %14, ptr noundef %8, i32 noundef %16)
  %18 = icmp ne i32 %17, 0
  br i1 %18, label %20, label %19

19:                                               ; preds = %13
  store i32 0, ptr %4, align 4
  store i32 1, ptr %10, align 4
  br label %48

20:                                               ; preds = %13
  %21 = load ptr, ptr %5, align 8, !tbaa !3
  %22 = call i32 @FLAC__bitreader_read_raw_uint32(ptr noundef %21, ptr noundef %9, i32 noundef 32)
  %23 = icmp ne i32 %22, 0
  br i1 %23, label %25, label %24

24:                                               ; preds = %20
  store i32 0, ptr %4, align 4
  store i32 1, ptr %10, align 4
  br label %48

25:                                               ; preds = %20
  %26 = load i32, ptr %8, align 4, !tbaa !32
  %27 = zext i32 %26 to i64
  %28 = load ptr, ptr %6, align 8, !tbaa !39
  store i64 %27, ptr %28, align 8, !tbaa !28
  %29 = load ptr, ptr %6, align 8, !tbaa !39
  %30 = load i64, ptr %29, align 8, !tbaa !28
  %31 = shl i64 %30, 32
  store i64 %31, ptr %29, align 8, !tbaa !28
  %32 = load i32, ptr %9, align 4, !tbaa !32
  %33 = zext i32 %32 to i64
  %34 = load ptr, ptr %6, align 8, !tbaa !39
  %35 = load i64, ptr %34, align 8, !tbaa !28
  %36 = or i64 %35, %33
  store i64 %36, ptr %34, align 8, !tbaa !28
  br label %47

37:                                               ; preds = %3
  %38 = load ptr, ptr %5, align 8, !tbaa !3
  %39 = load i32, ptr %7, align 4, !tbaa !32
  %40 = call i32 @FLAC__bitreader_read_raw_uint32(ptr noundef %38, ptr noundef %9, i32 noundef %39)
  %41 = icmp ne i32 %40, 0
  br i1 %41, label %43, label %42

42:                                               ; preds = %37
  store i32 0, ptr %4, align 4
  store i32 1, ptr %10, align 4
  br label %48

43:                                               ; preds = %37
  %44 = load i32, ptr %9, align 4, !tbaa !32
  %45 = zext i32 %44 to i64
  %46 = load ptr, ptr %6, align 8, !tbaa !39
  store i64 %45, ptr %46, align 8, !tbaa !28
  br label %47

47:                                               ; preds = %43, %25
  store i32 1, ptr %4, align 4
  store i32 1, ptr %10, align 4
  br label %48

48:                                               ; preds = %47, %42, %24, %19
  call void @llvm.lifetime.end.p0(i64 4, ptr %9) #10
  call void @llvm.lifetime.end.p0(i64 4, ptr %8) #10
  %49 = load i32, ptr %4, align 4
  ret i32 %49
}

; Function Attrs: nounwind sspstrong uwtable
define hidden i32 @FLAC__bitreader_read_raw_int64(ptr noundef %0, ptr noundef %1, i32 noundef %2) #0 {
  %4 = alloca i32, align 4
  %5 = alloca ptr, align 8
  %6 = alloca ptr, align 8
  %7 = alloca i32, align 4
  %8 = alloca i64, align 8
  %9 = alloca i64, align 8
  %10 = alloca i32, align 4
  store ptr %0, ptr %5, align 8, !tbaa !3
  store ptr %1, ptr %6, align 8, !tbaa !39
  store i32 %2, ptr %7, align 4, !tbaa !32
  call void @llvm.lifetime.start.p0(i64 8, ptr %8) #10
  call void @llvm.lifetime.start.p0(i64 8, ptr %9) #10
  %11 = load i32, ptr %7, align 4, !tbaa !32
  %12 = icmp ult i32 %11, 1
  br i1 %12, label %18, label %13

13:                                               ; preds = %3
  %14 = load ptr, ptr %5, align 8, !tbaa !3
  %15 = load i32, ptr %7, align 4, !tbaa !32
  %16 = call i32 @FLAC__bitreader_read_raw_uint64(ptr noundef %14, ptr noundef %8, i32 noundef %15)
  %17 = icmp ne i32 %16, 0
  br i1 %17, label %19, label %18

18:                                               ; preds = %13, %3
  store i32 0, ptr %4, align 4
  store i32 1, ptr %10, align 4
  br label %36

19:                                               ; preds = %13
  %20 = load i32, ptr %7, align 4, !tbaa !32
  %21 = icmp uge i32 %20, 65
  br i1 %21, label %22, label %23

22:                                               ; preds = %19
  br label %28

23:                                               ; preds = %19
  %24 = load i32, ptr %7, align 4, !tbaa !32
  %25 = sub i32 %24, 1
  %26 = zext i32 %25 to i64
  %27 = shl i64 1, %26
  br label %28

28:                                               ; preds = %23, %22
  %29 = phi i64 [ 0, %22 ], [ %27, %23 ]
  store i64 %29, ptr %9, align 8, !tbaa !28
  %30 = load i64, ptr %8, align 8, !tbaa !28
  %31 = load i64, ptr %9, align 8, !tbaa !28
  %32 = xor i64 %30, %31
  %33 = load i64, ptr %9, align 8, !tbaa !28
  %34 = sub i64 %32, %33
  %35 = load ptr, ptr %6, align 8, !tbaa !39
  store i64 %34, ptr %35, align 8, !tbaa !28
  store i32 1, ptr %4, align 4
  store i32 1, ptr %10, align 4
  br label %36

36:                                               ; preds = %28, %18
  call void @llvm.lifetime.end.p0(i64 8, ptr %9) #10
  call void @llvm.lifetime.end.p0(i64 8, ptr %8) #10
  %37 = load i32, ptr %4, align 4
  ret i32 %37
}