; Function Attrs: nounwind sspstrong uwtable
define hidden range(i32 0, 2) i32 @FLAC__bitreader_read_raw_int64(ptr noundef captures(none) %0, ptr noundef writeonly captures(none) %1, i32 noundef %2) local_unnamed_addr #9 {
  %4 = alloca i32, align 4
  %5 = alloca i32, align 4
  %6 = icmp eq i32 %2, 0
  br i1 %6, label %34, label %7

7:                                                ; preds = %3
  call void @llvm.lifetime.start.p0(i64 4, ptr nonnull %4) #21
  call void @llvm.lifetime.start.p0(i64 4, ptr nonnull %5) #21
  %8 = icmp ugt i32 %2, 32
  br i1 %8, label %9, label %21

9:                                                ; preds = %7
  %10 = add i32 %2, -32
  %11 = call i32 @FLAC__bitreader_read_raw_uint32(ptr noundef %0, ptr noundef nonnull %4, i32 noundef %10)
  %.not11.i = icmp eq i32 %11, 0
  br i1 %.not11.i, label %FLAC__bitreader_read_raw_uint64.exit.thread, label %12

12:                                               ; preds = %9
  %13 = call i32 @FLAC__bitreader_read_raw_uint32(ptr noundef %0, ptr noundef nonnull %5, i32 noundef 32)
  %.not12.i = icmp eq i32 %13, 0
  br i1 %.not12.i, label %FLAC__bitreader_read_raw_uint64.exit.thread, label %14

14:                                               ; preds = %12
  %15 = load i32, ptr %4, align 4, !tbaa !30
  %16 = zext i32 %15 to i64
  %17 = shl nuw i64 %16, 32
  %18 = load i32, ptr %5, align 4, !tbaa !30
  %19 = zext i32 %18 to i64
  %20 = or disjoint i64 %17, %19
  br label %26

21:                                               ; preds = %7
  %22 = call i32 @FLAC__bitreader_read_raw_uint32(ptr noundef %0, ptr noundef nonnull %5, i32 noundef %2)
  %.not.i = icmp eq i32 %22, 0
  br i1 %.not.i, label %FLAC__bitreader_read_raw_uint64.exit.thread, label %23

23:                                               ; preds = %21
  %24 = load i32, ptr %5, align 4, !tbaa !30
  %25 = zext i32 %24 to i64
  br label %26

FLAC__bitreader_read_raw_uint64.exit.thread:      ; preds = %9, %12, %21
  call void @llvm.lifetime.end.p0(i64 4, ptr nonnull %5) #21
  call void @llvm.lifetime.end.p0(i64 4, ptr nonnull %4) #21
  br label %34

26:                                               ; preds = %23, %14
  %.09 = phi i64 [ %25, %23 ], [ %20, %14 ]
  call void @llvm.lifetime.end.p0(i64 4, ptr nonnull %5) #21
  call void @llvm.lifetime.end.p0(i64 4, ptr nonnull %4) #21
  %27 = icmp ugt i32 %2, 64
  %28 = add i32 %2, -1
  %29 = zext nneg i32 %28 to i64
  %30 = shl nuw i64 1, %29
  %31 = select i1 %27, i64 0, i64 %30
  %32 = xor i64 %.09, %31
  %33 = sub i64 %32, %31
  store i64 %33, ptr %1, align 8, !tbaa !21
  br label %34

34:                                               ; preds = %FLAC__bitreader_read_raw_uint64.exit.thread, %3, %26
  %.0 = phi i32 [ 1, %26 ], [ 0, %3 ], [ 0, %FLAC__bitreader_read_raw_uint64.exit.thread ]
  ret i32 %.0
}